target datalayout = "e-m:e-p270:32:32-p271:32:32-p272:64:64-i64:64-i128:128-f80:128-n8:16:32:64-S128"
target triple = "x86_64-pc-linux-gnu"

%class.anon = type <{ ptr, i64, double, i32, [4 x i8] }>
%"class.gmx::ForceElement" = type { %"class.gmx::ISimulatorElement", %"class.gmx::ITopologyHolderClient", %"class.gmx::INeighborSearchSignallerClient", %"class.gmx::IEnergySignallerClient", %"class.gmx::IDomDecHelperClient", ptr, i8, i64, i64, i64, i64, ptr, ptr, ptr, ptr, i8, i8, i64, %class.DDBalanceRegionHandler, %"class.std::unique_ptr", %"struct.gmx::EnumerationArray.6", ptr, ptr, ptr, ptr, ptr, ptr, ptr, ptr, ptr, ptr, ptr, ptr, ptr, ptr }
%"class.gmx::ISimulatorElement" = type { ptr }
%"class.gmx::ITopologyHolderClient" = type { ptr }
%"class.gmx::INeighborSearchSignallerClient" = type { ptr }
%"class.gmx::IEnergySignallerClient" = type { ptr }
%"class.gmx::IDomDecHelperClient" = type { ptr }
%class.DDBalanceRegionHandler = type { i8, ptr }
%"class.std::unique_ptr" = type { %"struct.std::__uniq_ptr_data" }
%"struct.std::__uniq_ptr_data" = type { %"class.std::__uniq_ptr_impl" }
%"class.std::__uniq_ptr_impl" = type { %"class.std::tuple" }
%"class.std::tuple" = type { %"struct.std::_Tuple_impl" }
%"struct.std::_Tuple_impl" = type { %"struct.std::_Head_base.5" }
%"struct.std::_Head_base.5" = type { ptr }
%"struct.gmx::EnumerationArray.6" = type { [7 x float] }

; Function Attrs: mustprogress uwtable
define internal void @"_ZZN3gmx12ForceElement12scheduleTaskEldRKSt8functionIFvS1_IFvvEEEEENK3$_0clEv"(ptr noundef nonnull align 8 dereferenceable(28) %0) #0 align 2 {
  %2 = alloca ptr, align 8
  store ptr %0, ptr %2, align 8
  %3 = load ptr, ptr %2, align 8
  %4 = getelementptr inbounds %class.anon, ptr %3, i32 0, i32 0
  %5 = load ptr, ptr %4, align 8
  %6 = getelementptr inbounds %"class.gmx::ForceElement", ptr %5, i32 0, i32 6
  %7 = load i8, ptr %6, align 8
  %8 = trunc i8 %7 to i1
  br i1 %8, label %9, label %16

9:                                                ; preds = %1
  %10 = getelementptr inbounds %class.anon, ptr %3, i32 0, i32 1
  %11 = load i64, ptr %10, align 8
  %12 = getelementptr inbounds %class.anon, ptr %3, i32 0, i32 2
  %13 = load double, ptr %12, align 8
  %14 = getelementptr inbounds %class.anon, ptr %3, i32 0, i32 3
  %15 = load i32, ptr %14, align 8
  call void @_ZN3gmx12ForceElement3runILb1EEEvldj(ptr noundef nonnull align 8 dereferenceable(304) %5, i64 noundef %11, double noundef %13, i32 noundef %15)
  br label %23

16:                                               ; preds = %1
  %17 = getelementptr inbounds %class.anon, ptr %3, i32 0, i32 1
  %18 = load i64, ptr %17, align 8
  %19 = getelementptr inbounds %class.anon, ptr %3, i32 0, i32 2
  %20 = load double, ptr %19, align 8
  %21 = getelementptr inbounds %class.anon, ptr %3, i32 0, i32 3
  %22 = load i32, ptr %21, align 8
  call void @_ZN3gmx12ForceElement3runILb0EEEvldj(ptr noundef nonnull align 8 dereferenceable(304) %5, i64 noundef %18, double noundef %20, i32 noundef %22)
  br label %23

23:                                               ; preds = %16, %9
  ret void
}

; Function Attrs: mustprogress nounwind uwtable
define linkonce_odr noundef ptr @_ZNKSt9_Any_data9_M_accessEv(ptr noundef nonnull align 8 dereferenceable(16) %0) #1 comdat align 2 {
  %2 = alloca ptr, align 8
  store ptr %0, ptr %2, align 8
  %3 = load ptr, ptr %2, align 8
  %4 = getelementptr inbounds [16 x i8], ptr %3, i64 0, i64 0
  ret ptr %4
}

; Function Attrs: mustprogress uwtable
define internal void @"_ZSt13__invoke_implIvRZN3gmx12ForceElement12scheduleTaskEldRKSt8functionIFvS2_IFvvEEEEE3$_0JEET_St14__invoke_otherOT0_DpOT1_"(ptr noundef nonnull align 8 dereferenceable(28) %0) #0 {
  %2 = alloca ptr, align 8
  store ptr %0, ptr %2, align 8
  %3 = load ptr, ptr %2, align 8
  call void @"_ZZN3gmx12ForceElement12scheduleTaskEldRKSt8functionIFvS1_IFvvEEEEENK3$_0clEv"(ptr noundef nonnull align 8 dereferenceable(28) %3)
  ret void
}

; Function Attrs: mustprogress nounwind uwtable
define internal noundef nonnull align 8 dereferenceable(8) ptr @"_ZNKSt9_Any_data9_M_accessIPZN3gmx12ForceElement12scheduleTaskEldRKSt8functionIFvS3_IFvvEEEEE3$_0EERKT_v"(ptr noundef nonnull align 8 dereferenceable(16) %0) #1 align 2 {
  %2 = alloca ptr, align 8
  store ptr %0, ptr %2, align 8
  %3 = load ptr, ptr %2, align 8
  %4 = call noundef ptr @_ZNKSt9_Any_data9_M_accessEv(ptr noundef nonnull align 8 dereferenceable(16) %3) #5
  ret ptr %4
}

; Function Attrs: mustprogress uwtable
define internal void @"_ZSt10__invoke_rIvRZN3gmx12ForceElement12scheduleTaskEldRKSt8functionIFvS2_IFvvEEEEE3$_0JEENSt9enable_ifIX16is_invocable_r_vIT_T0_DpT1_EESC_E4typeEOSD_DpOSE_"(ptr noundef nonnull align 8 dereferenceable(28) %0) #0 {
  %2 = alloca ptr, align 8
  store ptr %0, ptr %2, align 8
  %3 = load ptr, ptr %2, align 8
  call void @"_ZSt13__invoke_implIvRZN3gmx12ForceElement12scheduleTaskEldRKSt8functionIFvS2_IFvvEEEEE3$_0JEET_St14__invoke_otherOT0_DpOT1_"(ptr noundef nonnull align 8 dereferenceable(28) %3)
  ret void
}

; Function Attrs: mustprogress nounwind uwtable
define internal noundef ptr @"_ZNSt14_Function_base13_Base_managerIZN3gmx12ForceElement12scheduleTaskEldRKSt8functionIFvS3_IFvvEEEEE3$_0E14_M_get_pointerERKSt9_Any_data"(ptr noundef nonnull align 8 dereferenceable(16) %0) #1 align 2 {
  %2 = alloca ptr, align 8
  store ptr %0, ptr %2, align 8
  %3 = load ptr, ptr %2, align 8
  %4 = call noundef nonnull align 8 dereferenceable(8) ptr @"_ZNKSt9_Any_data9_M_accessIPZN3gmx12ForceElement12scheduleTaskEldRKSt8functionIFvS3_IFvvEEEEE3$_0EERKT_v"(ptr noundef nonnull align 8 dereferenceable(16) %3) #5
  %5 = load ptr, ptr %4, align 8
  ret ptr %5
}

; Function Attrs: mustprogress uwtable
define internal void @"_ZNSt17_Function_handlerIFvvEZN3gmx12ForceElement12scheduleTaskEldRKSt8functionIFvS3_IS0_EEEE3$_0E9_M_invokeERKSt9_Any_data"(ptr noundef nonnull align 8 dereferenceable(16) %0) #0 align 2 {
  %2 = alloca ptr, align 8
  store ptr %0, ptr %2, align 8
  %3 = load ptr, ptr %2, align 8
  %4 = call noundef ptr @"_ZNSt14_Function_base13_Base_managerIZN3gmx12ForceElement12scheduleTaskEldRKSt8functionIFvS3_IFvvEEEEE3$_0E14_M_get_pointerERKSt9_Any_data"(ptr noundef nonnull align 8 dereferenceable(16) %3) #5
  call void @"_ZSt10__invoke_rIvRZN3gmx12ForceElement12scheduleTaskEldRKSt8functionIFvS2_IFvvEEEEE3$_0JEENSt9enable_ifIX16is_invocable_r_vIT_T0_DpT1_EESC_E4typeEOSD_DpOSE_"(ptr noundef nonnull align 8 dereferenceable(28) %4)
  ret void
}