; Function Attrs: mustprogress uwtable
define internal void @"_ZNSt17_Function_handlerIFvvEZN3gmx12ForceElement12scheduleTaskEldRKSt8functionIFvS3_IS0_EEEE3$_0E9_M_invokeERKSt9_Any_data"(ptr nocapture noundef nonnull readonly align 8 dereferenceable(16) %0) #0 align 2 {
  %.val = load ptr, ptr %0, align 8
  %2 = load ptr, ptr %.val, align 8
  %3 = getelementptr inbounds i8, ptr %2, i64 48
  %4 = load i8, ptr %3, align 8
  %5 = trunc i8 %4 to i1
  %6 = getelementptr inbounds i8, ptr %.val, i64 8
  %7 = load i64, ptr %6, align 8
  %8 = getelementptr inbounds i8, ptr %.val, i64 16
  %9 = load double, ptr %8, align 8
  %10 = getelementptr inbounds i8, ptr %.val, i64 24
  %11 = load i32, ptr %10, align 8
  br i1 %5, label %12, label %13

12:                                               ; preds = %1
  tail call void @_ZN3gmx12ForceElement3runILb1EEEvldj(ptr noundef nonnull align 8 dereferenceable(304) %2, i64 noundef %7, double noundef %9, i32 noundef %11)
  br label %"_ZSt10__invoke_rIvRZN3gmx12ForceElement12scheduleTaskEldRKSt8functionIFvS2_IFvvEEEEE3$_0JEENSt9enable_ifIX16is_invocable_r_vIT_T0_DpT1_EESC_E4typeEOSD_DpOSE_.exit"

13:                                               ; preds = %1
  tail call void @_ZN3gmx12ForceElement3runILb0EEEvldj(ptr noundef nonnull align 8 dereferenceable(304) %2, i64 noundef %7, double noundef %9, i32 noundef %11)
  br label %"_ZSt10__invoke_rIvRZN3gmx12ForceElement12scheduleTaskEldRKSt8functionIFvS2_IFvvEEEEE3$_0JEENSt9enable_ifIX16is_invocable_r_vIT_T0_DpT1_EESC_E4typeEOSD_DpOSE_.exit"

"_ZSt10__invoke_rIvRZN3gmx12ForceElement12scheduleTaskEldRKSt8functionIFvS2_IFvvEEEEE3$_0JEENSt9enable_ifIX16is_invocable_r_vIT_T0_DpT1_EESC_E4typeEOSD_DpOSE_.exit": ; preds = %12, %13
  ret void
}